target datalayout = "e-m:e-p270:32:32-p271:32:32-p272:64:64-i64:64-i128:128-f80:128-n8:16:32:64-S128"
target triple = "x86_64-pc-linux-gnu"

%struct.REOpCode = type { i8 }
%struct.packed_u16 = type { i16 }

; Function Attrs: nounwind uwtable
define internal i32 @get_u16(ptr noundef %0) #0 {
  %2 = alloca ptr, align 8
  store ptr %0, ptr %2, align 8
  %3 = load ptr, ptr %2, align 8
  %4 = getelementptr inbounds %struct.packed_u16, ptr %3, i32 0, i32 0
  %5 = load i16, ptr %4, align 1
  %6 = zext i16 %5 to i32
  ret i32 %6
}

; Function Attrs: nounwind uwtable
define internal i32 @re_is_simple_quantifier(ptr noundef %0, i32 noundef %1) #0 {
  %3 = alloca i32, align 4
  %4 = alloca ptr, align 8
  %5 = alloca i32, align 4
  %6 = alloca i32, align 4
  %7 = alloca i32, align 4
  %8 = alloca i32, align 4
  %9 = alloca i32, align 4
  %10 = alloca i32, align 4
  store ptr %0, ptr %4, align 8
  store i32 %1, ptr %5, align 4
  store i32 0, ptr %9, align 4
  store i32 0, ptr %6, align 4
  br label %11

11:                                               ; preds = %57, %2
  %12 = load i32, ptr %6, align 4
  %13 = load i32, ptr %5, align 4
  %14 = icmp slt i32 %12, %13
  br i1 %14, label %15, label %61

15:                                               ; preds = %11
  %16 = load ptr, ptr %4, align 8
  %17 = load i32, ptr %6, align 4
  %18 = sext i32 %17 to i64
  %19 = getelementptr i8, ptr %16, i64 %18
  %20 = load i8, ptr %19, align 1
  %21 = zext i8 %20 to i32
  store i32 %21, ptr %7, align 4
  %22 = load i32, ptr %7, align 4
  %23 = sext i32 %22 to i64
  %24 = getelementptr [29 x %struct.REOpCode], ptr @reopcode_info, i64 0, i64 %23
  %25 = getelementptr inbounds %struct.REOpCode, ptr %24, i32 0, i32 0
  %26 = load i8, ptr %25, align 1
  %27 = zext i8 %26 to i32
  store i32 %27, ptr %8, align 4
  %28 = load i32, ptr %7, align 4
  switch i32 %28, label %56 [
    i32 21, label %29
    i32 22, label %40
    i32 1, label %51
    i32 2, label %51
    i32 3, label %51
    i32 4, label %51
    i32 5, label %55
    i32 6, label %55
    i32 17, label %55
    i32 18, label %55
  ]

29:                                               ; preds = %15
  %30 = load ptr, ptr %4, align 8
  %31 = load i32, ptr %6, align 4
  %32 = sext i32 %31 to i64
  %33 = getelementptr i8, ptr %30, i64 %32
  %34 = getelementptr i8, ptr %33, i64 1
  %35 = call i32 @get_u16(ptr noundef %34)
  store i32 %35, ptr %10, align 4
  %36 = load i32, ptr %10, align 4
  %37 = mul i32 %36, 4
  %38 = load i32, ptr %8, align 4
  %39 = add i32 %38, %37
  store i32 %39, ptr %8, align 4
  br label %52

40:                                               ; preds = %15
  %41 = load ptr, ptr %4, align 8
  %42 = load i32, ptr %6, align 4
  %43 = sext i32 %42 to i64
  %44 = getelementptr i8, ptr %41, i64 %43
  %45 = getelementptr i8, ptr %44, i64 1
  %46 = call i32 @get_u16(ptr noundef %45)
  store i32 %46, ptr %10, align 4
  %47 = load i32, ptr %10, align 4
  %48 = mul i32 %47, 8
  %49 = load i32, ptr %8, align 4
  %50 = add i32 %49, %48
  store i32 %50, ptr %8, align 4
  br label %52

51:                                               ; preds = %15, %15, %15, %15
  br label %52

52:                                               ; preds = %51, %40, %29
  %53 = load i32, ptr %9, align 4
  %54 = add i32 %53, 1
  store i32 %54, ptr %9, align 4
  br label %57

55:                                               ; preds = %15, %15, %15, %15
  br label %57

56:                                               ; preds = %15
  store i32 -1, ptr %3, align 4
  br label %63

57:                                               ; preds = %55, %52
  %58 = load i32, ptr %8, align 4
  %59 = load i32, ptr %6, align 4
  %60 = add i32 %59, %58
  store i32 %60, ptr %6, align 4
  br label %11, !llvm.loop !25

61:                                               ; preds = %11
  %62 = load i32, ptr %9, align 4
  store i32 %62, ptr %3, align 4
  br label %63

63:                                               ; preds = %61, %56
  %64 = load i32, ptr %3, align 4
  ret i32 %64
}