; Function Attrs: nofree norecurse nosync nounwind memory(argmem: read) uwtable
define internal fastcc i32 @re_is_simple_quantifier(ptr nocapture noundef readonly %0, i32 noundef %1) unnamed_addr #10 {
  %3 = icmp sgt i32 %1, 0
  br i1 %3, label %.lr.ph, label %._crit_edge

.lr.ph:                                           ; preds = %2, %18
  %.024 = phi i32 [ %.1, %18 ], [ 0, %2 ]
  %.02123 = phi i32 [ %19, %18 ], [ 0, %2 ]
  %4 = sext i32 %.02123 to i64
  %5 = getelementptr i8, ptr %0, i64 %4
  %6 = load i8, ptr %5, align 1
  %7 = zext i8 %6 to i64
  %8 = getelementptr [29 x %struct.REOpCode], ptr @reopcode_info, i64 0, i64 %7
  %9 = load i8, ptr %8, align 1
  %10 = zext i8 %9 to i32
  switch i8 %6, label %._crit_edge [
    i8 21, label %.sink.split
    i8 22, label %11
    i8 1, label %16
    i8 2, label %16
    i8 3, label %16
    i8 4, label %16
    i8 5, label %18
    i8 6, label %18
    i8 17, label %18
    i8 18, label %18
  ]

11:                                               ; preds = %.lr.ph
  br label %.sink.split

.sink.split:                                      ; preds = %.lr.ph, %11
  %.sink28 = phi i32 [ 3, %11 ], [ 2, %.lr.ph ]
  %12 = getelementptr i8, ptr %5, i64 1
  %.val22 = load i16, ptr %12, align 1
  %13 = zext i16 %.val22 to i32
  %14 = shl nuw nsw i32 %13, %.sink28
  %15 = add nuw nsw i32 %14, %10
  br label %16

16:                                               ; preds = %.sink.split, %.lr.ph, %.lr.ph, %.lr.ph, %.lr.ph
  %.018 = phi i32 [ %10, %.lr.ph ], [ %10, %.lr.ph ], [ %10, %.lr.ph ], [ %10, %.lr.ph ], [ %15, %.sink.split ]
  %17 = add i32 %.024, 1
  br label %18

18:                                               ; preds = %.lr.ph, %.lr.ph, %.lr.ph, %.lr.ph, %16
  %.119 = phi i32 [ %10, %.lr.ph ], [ %10, %.lr.ph ], [ %10, %.lr.ph ], [ %10, %.lr.ph ], [ %.018, %16 ]
  %.1 = phi i32 [ %.024, %.lr.ph ], [ %.024, %.lr.ph ], [ %.024, %.lr.ph ], [ %.024, %.lr.ph ], [ %17, %16 ]
  %19 = add i32 %.119, %.02123
  %20 = icmp slt i32 %19, %1
  br i1 %20, label %.lr.ph, label %._crit_edge, !llvm.loop !30

._crit_edge:                                      ; preds = %.lr.ph, %18, %2
  %.020 = phi i32 [ 0, %2 ], [ %.1, %18 ], [ -1, %.lr.ph ]
  ret i32 %.020
}